target datalayout = "e-m:e-p270:32:32-p271:32:32-p272:64:64-i64:64-i128:128-f80:128-n8:16:32:64-S128"
target triple = "x86_64-pc-linux-gnu"

; Function Attrs: nounwind uwtable
define internal i32 @H5P__dxfr_dset_io_hyp_sel_cmp(ptr noundef %0, ptr noundef %1, i64 noundef %2) #0 {
  %4 = alloca ptr, align 8
  %5 = alloca ptr, align 8
  %6 = alloca i64, align 8
  %7 = alloca ptr, align 8
  %8 = alloca ptr, align 8
  %9 = alloca i32, align 4
  store ptr %0, ptr %4, align 8
  store ptr %1, ptr %5, align 8
  store i64 %2, ptr %6, align 8
  %10 = load ptr, ptr %4, align 8
  store ptr %10, ptr %7, align 8
  %11 = load ptr, ptr %5, align 8
  store ptr %11, ptr %8, align 8
  store i32 0, ptr %9, align 4
  %12 = load ptr, ptr %7, align 8
  %13 = load ptr, ptr %12, align 8
  %14 = icmp eq ptr %13, null
  br i1 %14, label %15, label %22

15:                                               ; preds = %3
  %16 = load ptr, ptr %8, align 8
  %17 = load ptr, ptr %16, align 8
  %18 = icmp ne ptr %17, null
  br i1 %18, label %19, label %22

19:                                               ; preds = %15
  br label %20

20:                                               ; preds = %19
  store i32 -1, ptr %9, align 4
  br label %59

21:                                               ; No predecessors!
  br label %22

22:                                               ; preds = %21, %15, %3
  %23 = load ptr, ptr %7, align 8
  %24 = load ptr, ptr %23, align 8
  %25 = icmp ne ptr %24, null
  br i1 %25, label %26, label %33

26:                                               ; preds = %22
  %27 = load ptr, ptr %8, align 8
  %28 = load ptr, ptr %27, align 8
  %29 = icmp eq ptr %28, null
  br i1 %29, label %30, label %33

30:                                               ; preds = %26
  br label %31

31:                                               ; preds = %30
  store i32 1, ptr %9, align 4
  br label %59

32:                                               ; No predecessors!
  br label %33

33:                                               ; preds = %32, %26, %22
  %34 = load ptr, ptr %7, align 8
  %35 = load ptr, ptr %34, align 8
  %36 = icmp ne ptr %35, null
  br i1 %36, label %37, label %58

37:                                               ; preds = %33
  %38 = load ptr, ptr %7, align 8
  %39 = load ptr, ptr %38, align 8
  %40 = load ptr, ptr %8, align 8
  %41 = load ptr, ptr %40, align 8
  %42 = call i32 @H5S_extent_equal(ptr noundef %39, ptr noundef %41)
  %43 = icmp ne i32 1, %42
  br i1 %43, label %44, label %47

44:                                               ; preds = %37
  br label %45

45:                                               ; preds = %44
  store i32 -1, ptr %9, align 4
  br label %59

46:                                               ; No predecessors!
  br label %47

47:                                               ; preds = %46, %37
  %48 = load ptr, ptr %7, align 8
  %49 = load ptr, ptr %48, align 8
  %50 = load ptr, ptr %8, align 8
  %51 = load ptr, ptr %50, align 8
  %52 = call i32 @H5S_select_shape_same(ptr noundef %49, ptr noundef %51)
  %53 = icmp ne i32 1, %52
  br i1 %53, label %54, label %57

54:                                               ; preds = %47
  br label %55

55:                                               ; preds = %54
  store i32 -1, ptr %9, align 4
  br label %59

56:                                               ; No predecessors!
  br label %57

57:                                               ; preds = %56, %47
  br label %58

58:                                               ; preds = %57, %33
  br label %59

59:                                               ; preds = %58, %55, %45, %31, %20
  %60 = load i32, ptr %9, align 4
  ret i32 %60
}