; Function Attrs: nounwind uwtable
define internal range(i32 -1, 2) i32 @H5P__dxfr_dset_io_hyp_sel_cmp(ptr nocapture noundef readonly %0, ptr nocapture noundef readonly %1, i64 %2) #0 {
  %4 = load ptr, ptr %0, align 8
  %5 = icmp eq ptr %4, null
  %6 = load ptr, ptr %1, align 8
  br i1 %5, label %7, label %8

7:                                                ; preds = %3
  %.not = icmp ne ptr %6, null
  %spec.select17 = sext i1 %.not to i32
  br label %.thread16

8:                                                ; preds = %3
  %9 = icmp eq ptr %6, null
  br i1 %9, label %.thread16, label %10

10:                                               ; preds = %8
  %11 = tail call i32 @H5S_extent_equal(ptr noundef nonnull %4, ptr noundef nonnull %6) #8
  %.not14 = icmp eq i32 %11, 1
  br i1 %.not14, label %12, label %.thread16

12:                                               ; preds = %10
  %13 = load ptr, ptr %0, align 8
  %14 = load ptr, ptr %1, align 8
  %15 = tail call i32 @H5S_select_shape_same(ptr noundef %13, ptr noundef %14) #8
  %.not15 = icmp ne i32 %15, 1
  %spec.select = sext i1 %.not15 to i32
  br label %.thread16

.thread16:                                        ; preds = %7, %12, %10, %8
  %.0 = phi i32 [ 1, %8 ], [ -1, %10 ], [ %spec.select, %12 ], [ %spec.select17, %7 ]
  ret i32 %.0
}